; Function Attrs: mustprogress nounwind uwtable
define hidden void @find(i64 noundef %0) local_unnamed_addr #1 {
  %2 = tail call align 8 ptr @llvm.threadlocal.address.p0(ptr align 8 @_ZN6Thread12_thr_currentE)
  %3 = load ptr, ptr %2, align 8
  %4 = getelementptr inbounds i8, ptr %3, i64 800
  %5 = load ptr, ptr %4, align 8
  %6 = getelementptr inbounds i8, ptr %5, i64 24
  %7 = load ptr, ptr %6, align 8
  %8 = getelementptr inbounds i8, ptr %5, i64 32
  %9 = load ptr, ptr %8, align 8
  %10 = getelementptr inbounds i8, ptr %5, i64 40
  %11 = load ptr, ptr %10, align 8
  %12 = getelementptr inbounds i8, ptr %5, i64 8
  %13 = load i64, ptr %12, align 8
  %14 = load i32, ptr @_ZN16DebuggingContext8_enabledE, align 4
  %15 = add nsw i32 %14, 1
  store i32 %15, ptr @_ZN16DebuggingContext8_enabledE, align 4
  %16 = load i32, ptr @_ZN7Command5levelE, align 4
  %17 = add nsw i32 %16, 1
  store i32 %17, ptr @_ZN7Command5levelE, align 4
  %18 = icmp sgt i32 %16, 0
  br i1 %18, label %_ZN7CommandC2EPKc.exit, label %19

19:                                               ; preds = %1
  %20 = load ptr, ptr @tty, align 8
  tail call void @_ZN12outputStream2crEv(ptr noundef nonnull align 8 dereferenceable(56) %20) #16
  %21 = load ptr, ptr @tty, align 8
  tail call void (ptr, ptr, ...) @_ZN12outputStream8print_crEPKcz(ptr noundef nonnull align 8 dereferenceable(56) %21, ptr noundef nonnull @.str.82, ptr noundef nonnull @.str.42) #16
  br label %_ZN7CommandC2EPKc.exit

_ZN7CommandC2EPKc.exit:                           ; preds = %1, %19
  %22 = load ptr, ptr @tty, align 8
  tail call void @_ZN2os14print_locationEP12outputStreamlb(ptr noundef %22, i64 noundef %0, i1 noundef zeroext false) #16
  %23 = load ptr, ptr @tty, align 8
  %24 = load ptr, ptr %23, align 8
  %25 = load ptr, ptr %24, align 8
  tail call void %25(ptr noundef nonnull align 8 dereferenceable(56) %23) #16
  %26 = load i32, ptr @_ZN7Command5levelE, align 4
  %27 = add nsw i32 %26, -1
  store i32 %27, ptr @_ZN7Command5levelE, align 4
  %28 = load i32, ptr @_ZN16DebuggingContext8_enabledE, align 4
  %29 = icmp sgt i32 %28, 0
  br i1 %29, label %_ZN16DebuggingContextD2Ev.exit.i, label %30

30:                                               ; preds = %_ZN7CommandC2EPKc.exit
  %31 = load ptr, ptr @g_assert_poison, align 8
  store i8 88, ptr %31, align 1
  tail call void (i32, ptr, i32, ptr, ...) @_Z12report_fatal11VMErrorTypePKciS1_z(i32 noundef -536870912, ptr noundef nonnull @.str, i32 noundef 91, ptr noundef nonnull @.str.4) #15
  unreachable

_ZN16DebuggingContextD2Ev.exit.i:                 ; preds = %_ZN7CommandC2EPKc.exit
  %32 = add nsw i32 %28, -1
  store i32 %32, ptr @_ZN16DebuggingContext8_enabledE, align 4
  %33 = load ptr, ptr %7, align 8
  %.not.i.i.i.i.i = icmp eq ptr %33, null
  br i1 %.not.i.i.i.i.i, label %35, label %34

34:                                               ; preds = %_ZN16DebuggingContextD2Ev.exit.i
  tail call void @_ZN5Arena17set_size_in_bytesEm(ptr noundef nonnull align 8 dereferenceable(48) %5, i64 noundef %13) #16
  tail call void @_ZN5Chunk9next_chopEPS_(ptr noundef nonnull %7) #16
  br label %35

35:                                               ; preds = %34, %_ZN16DebuggingContextD2Ev.exit.i
  %36 = load ptr, ptr %8, align 8
  %.not8.i.i.i.i.i = icmp eq ptr %36, %9
  br i1 %.not8.i.i.i.i.i, label %_ZN7CommandD2Ev.exit, label %37

37:                                               ; preds = %35
  store ptr %7, ptr %6, align 8
  store ptr %9, ptr %8, align 8
  store ptr %11, ptr %10, align 8
  br label %_ZN7CommandD2Ev.exit

_ZN7CommandD2Ev.exit:                             ; preds = %35, %37
  ret void
}